target datalayout = "e-m:e-p270:32:32-p271:32:32-p272:64:64-i64:64-i128:128-f80:128-n8:16:32:64-S128"
target triple = "x86_64-unknown-linux-gnu"

%struct.ec_key_st = type { ptr, ptr, ptr, i32, i32, i32, ptr, %struct.crypto_ex_data_st }
%struct.crypto_ex_data_st = type { ptr }
%struct.cbb_st = type { ptr, ptr, i64, i8, i8, i8 }

@.str = private unnamed_addr constant [123 x i8] c"generated/home/dtcxzyw/WorkSpace/Projects/compilers/llvm-opt-benchmark/bench/libquic/libquic/boringssl/crypto/ec/ec_asn1.c\00", align 1

; Function Attrs: nounwind uwtable
define hidden i32 @i2d_ECParameters(ptr noundef %key, ptr noundef %outp) #0 {
entry:
  %retval = alloca i32, align 4
  %key.addr = alloca ptr, align 8
  %outp.addr = alloca ptr, align 8
  %cbb = alloca %struct.cbb_st, align 8
  store ptr %key, ptr %key.addr, align 8
  store ptr %outp, ptr %outp.addr, align 8
  %0 = load ptr, ptr %key.addr, align 8
  %cmp = icmp eq ptr %0, null
  br i1 %cmp, label %if.then, label %lor.lhs.false

lor.lhs.false:                                    ; preds = %entry
  %1 = load ptr, ptr %key.addr, align 8
  %group = getelementptr inbounds %struct.ec_key_st, ptr %1, i32 0, i32 0
  %2 = load ptr, ptr %group, align 8
  %cmp1 = icmp eq ptr %2, null
  br i1 %cmp1, label %if.then, label %if.end

if.then:                                          ; preds = %lor.lhs.false, %entry
  call void @ERR_put_error(i32 noundef 15, i32 noundef 0, i32 noundef 67, ptr noundef @.str, i32 noundef 474)
  store i32 -1, ptr %retval, align 4
  br label %return

if.end:                                           ; preds = %lor.lhs.false
  %call = call i32 @CBB_init(ptr noundef %cbb, i64 noundef 0)
  %tobool = icmp ne i32 %call, 0
  br i1 %tobool, label %lor.lhs.false2, label %if.then6

lor.lhs.false2:                                   ; preds = %if.end
  %3 = load ptr, ptr %key.addr, align 8
  %group3 = getelementptr inbounds %struct.ec_key_st, ptr %3, i32 0, i32 0
  %4 = load ptr, ptr %group3, align 8
  %call4 = call i32 @EC_KEY_marshal_curve_name(ptr noundef %cbb, ptr noundef %4)
  %tobool5 = icmp ne i32 %call4, 0
  br i1 %tobool5, label %if.end7, label %if.then6

if.then6:                                         ; preds = %lor.lhs.false2, %if.end
  call void @CBB_cleanup(ptr noundef %cbb)
  store i32 -1, ptr %retval, align 4
  br label %return

if.end7:                                          ; preds = %lor.lhs.false2
  %5 = load ptr, ptr %outp.addr, align 8
  %call8 = call i32 @CBB_finish_i2d(ptr noundef %cbb, ptr noundef %5)
  store i32 %call8, ptr %retval, align 4
  br label %return

return:                                           ; preds = %if.end7, %if.then6, %if.then
  %6 = load i32, ptr %retval, align 4
  ret i32 %6
}