; Function Attrs: nounwind uwtable
define hidden i32 @i2d_ECParameters(ptr noundef readonly %key, ptr noundef %outp) local_unnamed_addr #0 {
entry:
  %cbb = alloca %struct.cbb_st, align 8
  %cmp = icmp eq ptr %key, null
  br i1 %cmp, label %if.then, label %lor.lhs.false

lor.lhs.false:                                    ; preds = %entry
  %0 = load ptr, ptr %key, align 8
  %cmp1 = icmp eq ptr %0, null
  br i1 %cmp1, label %if.then, label %if.end

if.then:                                          ; preds = %lor.lhs.false, %entry
  tail call void @ERR_put_error(i32 noundef 15, i32 noundef 0, i32 noundef 67, ptr noundef nonnull @.str, i32 noundef 474) #7
  br label %return

if.end:                                           ; preds = %lor.lhs.false
  %call = call i32 @CBB_init(ptr noundef nonnull %cbb, i64 noundef 0) #7
  %tobool.not = icmp eq i32 %call, 0
  br i1 %tobool.not, label %if.then6, label %lor.lhs.false2

lor.lhs.false2:                                   ; preds = %if.end
  %1 = load ptr, ptr %key, align 8
  %call4 = call i32 @EC_KEY_marshal_curve_name(ptr noundef nonnull %cbb, ptr noundef %1)
  %tobool5.not = icmp eq i32 %call4, 0
  br i1 %tobool5.not, label %if.then6, label %if.end7

if.then6:                                         ; preds = %lor.lhs.false2, %if.end
  call void @CBB_cleanup(ptr noundef nonnull %cbb) #7
  br label %return

if.end7:                                          ; preds = %lor.lhs.false2
  %call8 = call i32 @CBB_finish_i2d(ptr noundef nonnull %cbb, ptr noundef %outp) #7
  br label %return

return:                                           ; preds = %if.end7, %if.then6, %if.then
  %retval.0 = phi i32 [ -1, %if.then ], [ %call8, %if.end7 ], [ -1, %if.then6 ]
  ret i32 %retval.0
}